; Function Attrs: mustprogress null_pointer_is_valid sspstrong uwtable
define void @_ZN11DataPrinter10binaryDumpE10QByteArray(ptr readnone align 8 captures(none) %0, ptr noundef %1) local_unnamed_addr #0 align 2 personality ptr @__gxx_personality_v0 {
  %3 = alloca %class.QString, align 8
  %4 = alloca %class.QString, align 8
  %5 = getelementptr inbounds nuw i8, ptr %1, i64 16
  %6 = load i64, ptr %5, align 8
  %7 = icmp eq i64 %6, 0
  br i1 %7, label %33, label %8

8:                                                ; preds = %2
  %9 = tail call noalias noundef dereferenceable_or_null(16) ptr @_Znwm(i64 noundef 16) #19
  invoke void @_ZN9QMimeDataC1Ev(ptr noundef align 8 dereferenceable_or_null(16) %9)
          to label %10 unwind label %24

10:                                               ; preds = %8
  call void @llvm.lifetime.start.p0(i64 24, ptr nonnull %4) #16
  call void @llvm.lifetime.start.p0(i64 24, ptr nonnull %3) #16
  call void @_ZN7QString8fromUtf8E14QByteArrayView(ptr dead_on_unwind nonnull writable sret(%class.QString) align 8 %3, i64 24, ptr nonnull @.str.18)
  %11 = load ptr, ptr %3, align 8
  store ptr %11, ptr %4, align 8
  %12 = getelementptr inbounds nuw i8, ptr %4, i64 8
  %13 = getelementptr inbounds nuw i8, ptr %3, i64 8
  %14 = load ptr, ptr %13, align 8
  store ptr %14, ptr %12, align 8
  %15 = getelementptr inbounds nuw i8, ptr %4, i64 16
  %16 = getelementptr inbounds nuw i8, ptr %3, i64 16
  %17 = load i64, ptr %16, align 8
  store i64 %17, ptr %15, align 8
  call void @llvm.lifetime.end.p0(i64 24, ptr nonnull %3) #16
  invoke void @_ZN9QMimeData7setDataERK7QStringRK10QByteArray(ptr noundef align 8 dereferenceable_or_null(16) %9, ptr noundef nonnull align 8 dereferenceable(24) %4, ptr noundef align 8 dereferenceable(24) %1)
          to label %18 unwind label %26

18:                                               ; preds = %10
  %19 = load ptr, ptr %4, align 8
  %.not.i.i.i = icmp eq ptr %19, null
  br i1 %.not.i.i.i, label %_ZN7QStringD2Ev.exit, label %_ZN17QArrayDataPointerIDsE5derefEv.exit.i.i

_ZN17QArrayDataPointerIDsE5derefEv.exit.i.i:      ; preds = %18
  %20 = atomicrmw sub ptr %19, i32 1 seq_cst, align 4
  %.not.i.i = icmp eq i32 %20, 1
  br i1 %.not.i.i, label %21, label %_ZN7QStringD2Ev.exit

21:                                               ; preds = %_ZN17QArrayDataPointerIDsE5derefEv.exit.i.i
  %22 = load ptr, ptr %4, align 8
  call void @_ZN10QArrayData10deallocateEPS_xx(ptr noundef %22, i64 noundef 2, i64 noundef 8) #16
  br label %_ZN7QStringD2Ev.exit

_ZN7QStringD2Ev.exit:                             ; preds = %18, %_ZN17QArrayDataPointerIDsE5derefEv.exit.i.i, %21
  call void @llvm.lifetime.end.p0(i64 24, ptr nonnull %4) #16
  %23 = call noundef ptr @_ZN15QGuiApplication9clipboardEv()
  call void @_ZN10QClipboard11setMimeDataEP9QMimeDataNS_4ModeE(ptr noundef align 8 dereferenceable_or_null(16) %23, ptr noundef %9, i32 noundef 0)
  br label %33

24:                                               ; preds = %8
  %25 = landingpad { ptr, i32 }
          cleanup
  tail call void @_ZdlPvm(ptr noundef %9, i64 noundef 16) #20
  br label %32

26:                                               ; preds = %10
  %27 = landingpad { ptr, i32 }
          cleanup
  %28 = load ptr, ptr %4, align 8
  %.not.i.i.i5 = icmp eq ptr %28, null
  br i1 %.not.i.i.i5, label %_ZN7QStringD2Ev.exit8, label %_ZN17QArrayDataPointerIDsE5derefEv.exit.i.i6

_ZN17QArrayDataPointerIDsE5derefEv.exit.i.i6:     ; preds = %26
  %29 = atomicrmw sub ptr %28, i32 1 seq_cst, align 4
  %.not.i.i7 = icmp eq i32 %29, 1
  br i1 %.not.i.i7, label %30, label %_ZN7QStringD2Ev.exit8

30:                                               ; preds = %_ZN17QArrayDataPointerIDsE5derefEv.exit.i.i6
  %31 = load ptr, ptr %4, align 8
  call void @_ZN10QArrayData10deallocateEPS_xx(ptr noundef %31, i64 noundef 2, i64 noundef 8) #16
  br label %_ZN7QStringD2Ev.exit8

_ZN7QStringD2Ev.exit8:                            ; preds = %26, %_ZN17QArrayDataPointerIDsE5derefEv.exit.i.i6, %30
  call void @llvm.lifetime.end.p0(i64 24, ptr nonnull %4) #16
  br label %32

32:                                               ; preds = %_ZN7QStringD2Ev.exit8, %24
  %.pn = phi { ptr, i32 } [ %27, %_ZN7QStringD2Ev.exit8 ], [ %25, %24 ]
  resume { ptr, i32 } %.pn

33:                                               ; preds = %_ZN7QStringD2Ev.exit, %2
  ret void
}